; Function Attrs: alwaysinline norecurse nounwind uwtable
define internal void @_ZN8LightGBM16MultiValDenseBinIjE9CopyInnerILb1ELb1EEEvPKNS_11MultiValBinEPKiiRKSt6vectorIiSaIiEE.omp_outlined(ptr noalias noundef readonly captures(none) %0, ptr noalias readnone captures(none) %1, ptr noundef nonnull readonly align 4 captures(none) dereferenceable(4) %2, ptr noundef nonnull readonly align 4 captures(none) dereferenceable(4) %3, ptr noundef readonly captures(none) %4, ptr noundef nonnull readonly align 8 captures(none) dereferenceable(8) %5, ptr noundef nonnull readonly align 8 captures(none) dereferenceable(8) %6, ptr noundef nonnull readonly align 8 captures(none) dereferenceable(24) %7) #21 {
  %9 = alloca i32, align 4
  %10 = alloca i32, align 4
  %11 = alloca i32, align 4
  %12 = alloca i32, align 4
  %13 = load i32, ptr %2, align 4, !tbaa !10
  %14 = add nsw i32 %13, -1
  %15 = icmp sgt i32 %13, 0
  br i1 %15, label %16, label %75

16:                                               ; preds = %8
  call void @llvm.lifetime.start.p0(i64 4, ptr nonnull %9) #22
  store i32 0, ptr %9, align 4, !tbaa !10
  call void @llvm.lifetime.start.p0(i64 4, ptr nonnull %10) #22
  store i32 %14, ptr %10, align 4, !tbaa !10
  call void @llvm.lifetime.start.p0(i64 4, ptr nonnull %11) #22
  store i32 1, ptr %11, align 4, !tbaa !10
  call void @llvm.lifetime.start.p0(i64 4, ptr nonnull %12) #22
  store i32 0, ptr %12, align 4, !tbaa !10
  %17 = load i32, ptr %0, align 4, !tbaa !10
  call void @__kmpc_for_static_init_4(ptr nonnull @1, i32 %17, i32 33, ptr nonnull %12, ptr nonnull %9, ptr nonnull %10, ptr nonnull %11, i32 1, i32 1)
  %18 = load i32, ptr %10, align 4, !tbaa !10
  %19 = call i32 @llvm.smin.i32(i32 %18, i32 %14)
  store i32 %19, ptr %10, align 4, !tbaa !10
  %20 = load i32, ptr %9, align 4, !tbaa !10
  %.not51 = icmp sgt i32 %20, %19
  br i1 %.not51, label %._crit_edge52, label %.preheader.lr.ph

.preheader.lr.ph:                                 ; preds = %16
  %21 = getelementptr inbounds nuw i8, ptr %4, i64 8
  %22 = getelementptr inbounds nuw i8, ptr %4, i64 16
  %23 = getelementptr inbounds nuw i8, ptr %4, i64 48
  br label %.preheader

.preheader:                                       ; preds = %.preheader.lr.ph, %._crit_edge50
  %24 = phi i32 [ %19, %.preheader.lr.ph ], [ %74, %._crit_edge50 ]
  %25 = phi i32 [ %20, %.preheader.lr.ph ], [ %72, %._crit_edge50 ]
  %.not3947 = icmp sgt i32 %25, %24
  br i1 %.not3947, label %._crit_edge50, label %.lr.ph49

.lr.ph49:                                         ; preds = %.preheader
  %26 = load ptr, ptr %5, align 8
  %27 = load ptr, ptr %6, align 8
  %28 = getelementptr inbounds nuw i8, ptr %26, i64 16
  %29 = getelementptr inbounds nuw i8, ptr %26, i64 48
  br label %30

30:                                               ; preds = %.lr.ph49, %._crit_edge46
  %31 = phi i32 [ %24, %.lr.ph49 ], [ %42, %._crit_edge46 ]
  %.03648 = phi i32 [ %25, %.lr.ph49 ], [ %43, %._crit_edge46 ]
  %32 = load i32, ptr %3, align 4, !tbaa !10
  %33 = mul nsw i32 %32, %.03648
  %34 = add nsw i32 %33, %32
  %35 = load i32, ptr %21, align 4, !tbaa !10
  %.sroa.speculated = call i32 @llvm.smin.i32(i32 %34, i32 %35)
  %36 = icmp slt i32 %33, %.sroa.speculated
  br i1 %36, label %.lr.ph45, label %._crit_edge46

.lr.ph45:                                         ; preds = %30
  %37 = load ptr, ptr %7, align 8
  %38 = load i32, ptr %22, align 8, !tbaa !513
  %39 = icmp sgt i32 %38, 0
  br i1 %39, label %.lr.ph45.split.preheader, label %._crit_edge46

.lr.ph45.split.preheader:                         ; preds = %.lr.ph45
  %40 = sext i32 %33 to i64
  %41 = sext i32 %.sroa.speculated to i64
  br label %.lr.ph45.split

._crit_edge46.loopexit:                           ; preds = %._crit_edge
  %.pre = load i32, ptr %10, align 4, !tbaa !10
  br label %._crit_edge46

._crit_edge46:                                    ; preds = %.lr.ph45, %._crit_edge46.loopexit, %30
  %42 = phi i32 [ %.pre, %._crit_edge46.loopexit ], [ %31, %30 ], [ %31, %.lr.ph45 ]
  %43 = add nsw i32 %.03648, 1
  %.not39.not = icmp slt i32 %.03648, %42
  br i1 %.not39.not, label %30, label %._crit_edge50.loopexit

.lr.ph45.split:                                   ; preds = %.lr.ph45.split.preheader, %._crit_edge
  %44 = phi i32 [ %38, %.lr.ph45.split.preheader ], [ %58, %._crit_edge ]
  %indvars.iv56 = phi i64 [ %40, %.lr.ph45.split.preheader ], [ %indvars.iv.next57, %._crit_edge ]
  %45 = sext i32 %44 to i64
  %46 = mul nsw i64 %indvars.iv56, %45
  %47 = icmp sgt i32 %44, 0
  br i1 %47, label %.lr.ph, label %._crit_edge

.lr.ph:                                           ; preds = %.lr.ph45.split
  %48 = load i32, ptr %28, align 8, !tbaa !513
  %49 = sext i32 %48 to i64
  %50 = getelementptr inbounds i32, ptr %27, i64 %indvars.iv56
  %51 = load i32, ptr %50, align 4, !tbaa !10
  %52 = sext i32 %51 to i64
  %53 = mul nsw i64 %49, %52
  %54 = load ptr, ptr %29, align 8, !tbaa !171
  %55 = getelementptr i32, ptr %54, i64 %53
  %56 = load ptr, ptr %23, align 8, !tbaa !171
  %57 = getelementptr i32, ptr %56, i64 %46
  br label %60

._crit_edge:                                      ; preds = %60, %.lr.ph45.split
  %58 = phi i32 [ %44, %.lr.ph45.split ], [ %67, %60 ]
  %indvars.iv.next57 = add nsw i64 %indvars.iv56, 1
  %59 = icmp slt i64 %indvars.iv.next57, %41
  br i1 %59, label %.lr.ph45.split, label %._crit_edge46.loopexit, !llvm.loop !935

60:                                               ; preds = %.lr.ph, %60
  %indvars.iv = phi i64 [ 0, %.lr.ph ], [ %indvars.iv.next, %60 ]
  %61 = getelementptr inbounds nuw i32, ptr %37, i64 %indvars.iv
  %62 = load i32, ptr %61, align 4, !tbaa !10
  %63 = sext i32 %62 to i64
  %64 = getelementptr i32, ptr %55, i64 %63
  %65 = load i32, ptr %64, align 4, !tbaa !10
  %66 = getelementptr i32, ptr %57, i64 %indvars.iv
  store i32 %65, ptr %66, align 4, !tbaa !10
  %indvars.iv.next = add nuw nsw i64 %indvars.iv, 1
  %67 = load i32, ptr %22, align 8, !tbaa !513
  %68 = sext i32 %67 to i64
  %69 = icmp slt i64 %indvars.iv.next, %68
  br i1 %69, label %60, label %._crit_edge, !llvm.loop !936

._crit_edge50.loopexit:                           ; preds = %._crit_edge46
  %.pre59 = load i32, ptr %9, align 4, !tbaa !10
  br label %._crit_edge50

._crit_edge50:                                    ; preds = %._crit_edge50.loopexit, %.preheader
  %70 = phi i32 [ %25, %.preheader ], [ %.pre59, %._crit_edge50.loopexit ]
  %.lcssa = phi i32 [ %24, %.preheader ], [ %42, %._crit_edge50.loopexit ]
  %71 = load i32, ptr %11, align 4, !tbaa !10
  %72 = add nsw i32 %71, %70
  store i32 %72, ptr %9, align 4, !tbaa !10
  %73 = add nsw i32 %71, %.lcssa
  %74 = call i32 @llvm.smin.i32(i32 %73, i32 %14)
  store i32 %74, ptr %10, align 4, !tbaa !10
  %.not = icmp sgt i32 %72, %74
  br i1 %.not, label %._crit_edge52, label %.preheader

._crit_edge52:                                    ; preds = %._crit_edge50, %16
  call void @__kmpc_for_static_fini(ptr nonnull @1, i32 %17)
  call void @llvm.lifetime.end.p0(i64 4, ptr nonnull %12) #22
  call void @llvm.lifetime.end.p0(i64 4, ptr nonnull %11) #22
  call void @llvm.lifetime.end.p0(i64 4, ptr nonnull %10) #22
  call void @llvm.lifetime.end.p0(i64 4, ptr nonnull %9) #22
  br label %75

75:                                               ; preds = %._crit_edge52, %8
  ret void
}